target datalayout = "e-m:e-p270:32:32-p271:32:32-p272:64:64-i64:64-i128:128-f80:128-n8:16:32:64-S128"
target triple = "x86_64-pc-linux-gnu"

%struct.AVFilterContext = type { ptr, ptr, ptr, ptr, ptr, i32, ptr, ptr, i32, ptr, ptr, i32, i32, ptr, ptr, ptr, ptr, i32, ptr, i32, i32 }
%struct.ColorCorrectContext = type { ptr, float, float, float, float, float, i32, i32, float, float, i32, i32, [4 x i32], [4 x i32], ptr, ptr, ptr, ptr, ptr }
%struct.AVFilterLink = type { ptr, ptr, ptr, ptr, i32, i32, i32, i32, %struct.AVRational, i32, i32, i32, %struct.AVChannelLayout, %struct.AVRational, ptr, i32, %struct.AVFilterFormatsConfig, %struct.AVFilterFormatsConfig }
%struct.AVChannelLayout = type { i32, i32, %union.anon.1, ptr }
%union.anon.1 = type { i64 }
%struct.AVRational = type { i32, i32 }
%struct.AVFilterFormatsConfig = type { ptr, ptr, ptr, ptr, ptr }
%struct.AVPixFmtDescriptor = type { ptr, i8, i8, i8, i64, [4 x %struct.AVComponentDescriptor], ptr }
%struct.AVComponentDescriptor = type { i32, i32, i32, i32, i32 }

; Function Attrs: cold nounwind optsize uwtable
define internal i32 @config_input(ptr noundef %0) #0 {
  %2 = alloca i32, align 4
  %3 = alloca ptr, align 8
  %4 = alloca ptr, align 8
  %5 = alloca ptr, align 8
  %6 = alloca ptr, align 8
  %7 = alloca i32, align 4
  store ptr %0, ptr %3, align 8, !tbaa !24
  call void @llvm.lifetime.start.p0(i64 8, ptr %4) #9
  %8 = load ptr, ptr %3, align 8, !tbaa !24
  %9 = getelementptr inbounds nuw %struct.AVFilterLink, ptr %8, i32 0, i32 2
  %10 = load ptr, ptr %9, align 8, !tbaa !28
  store ptr %10, ptr %4, align 8, !tbaa !4
  call void @llvm.lifetime.start.p0(i64 8, ptr %5) #9
  %11 = load ptr, ptr %4, align 8, !tbaa !4
  %12 = getelementptr inbounds nuw %struct.AVFilterContext, ptr %11, i32 0, i32 9
  %13 = load ptr, ptr %12, align 8, !tbaa !9
  store ptr %13, ptr %5, align 8, !tbaa !22
  call void @llvm.lifetime.start.p0(i64 8, ptr %6) #9
  %14 = load ptr, ptr %3, align 8, !tbaa !24
  %15 = getelementptr inbounds nuw %struct.AVFilterLink, ptr %14, i32 0, i32 5
  %16 = load i32, ptr %15, align 4, !tbaa !53
  %17 = call ptr @av_pix_fmt_desc_get(i32 noundef %16)
  store ptr %17, ptr %6, align 8, !tbaa !54
  %18 = load ptr, ptr %6, align 8, !tbaa !54
  %19 = getelementptr inbounds nuw %struct.AVPixFmtDescriptor, ptr %18, i32 0, i32 5
  %20 = getelementptr inbounds [4 x %struct.AVComponentDescriptor], ptr %19, i64 0, i64 0
  %21 = getelementptr inbounds nuw %struct.AVComponentDescriptor, ptr %20, i32 0, i32 4
  %22 = load i32, ptr %21, align 8, !tbaa !56
  %23 = load ptr, ptr %5, align 8, !tbaa !22
  %24 = getelementptr inbounds nuw %struct.ColorCorrectContext, ptr %23, i32 0, i32 7
  store i32 %22, ptr %24, align 8, !tbaa !58
  %25 = load ptr, ptr %5, align 8, !tbaa !22
  %26 = getelementptr inbounds nuw %struct.ColorCorrectContext, ptr %25, i32 0, i32 7
  %27 = load i32, ptr %26, align 8, !tbaa !58
  %28 = shl i32 1, %27
  %29 = sub nsw i32 %28, 1
  %30 = sitofp i32 %29 to float
  %31 = load ptr, ptr %5, align 8, !tbaa !22
  %32 = getelementptr inbounds nuw %struct.ColorCorrectContext, ptr %31, i32 0, i32 8
  store float %30, ptr %32, align 4, !tbaa !59
  %33 = load ptr, ptr %5, align 8, !tbaa !22
  %34 = getelementptr inbounds nuw %struct.ColorCorrectContext, ptr %33, i32 0, i32 8
  %35 = load float, ptr %34, align 4, !tbaa !59
  %36 = fdiv nsz float 1.000000e+00, %35
  %37 = load ptr, ptr %5, align 8, !tbaa !22
  %38 = getelementptr inbounds nuw %struct.ColorCorrectContext, ptr %37, i32 0, i32 9
  store float %36, ptr %38, align 8, !tbaa !60
  %39 = load ptr, ptr %5, align 8, !tbaa !22
  %40 = getelementptr inbounds nuw %struct.ColorCorrectContext, ptr %39, i32 0, i32 7
  %41 = load i32, ptr %40, align 8, !tbaa !58
  %42 = icmp sle i32 %41, 8
  %43 = select i1 %42, ptr @colorcorrect_slice8, ptr @colorcorrect_slice16
  %44 = load ptr, ptr %5, align 8, !tbaa !22
  %45 = getelementptr inbounds nuw %struct.ColorCorrectContext, ptr %44, i32 0, i32 18
  store ptr %43, ptr %45, align 8, !tbaa !51
  %46 = load ptr, ptr %5, align 8, !tbaa !22
  %47 = getelementptr inbounds nuw %struct.ColorCorrectContext, ptr %46, i32 0, i32 8
  %48 = load float, ptr %47, align 4, !tbaa !59
  %49 = fcmp nsz oeq float %48, 2.550000e+02
  %50 = select i1 %49, i32 256, i32 65536
  %51 = sext i32 %50 to i64
  %52 = call noalias ptr @av_calloc(i64 noundef %51, i64 noundef 4)
  %53 = load ptr, ptr %5, align 8, !tbaa !22
  %54 = getelementptr inbounds nuw %struct.ColorCorrectContext, ptr %53, i32 0, i32 14
  store ptr %52, ptr %54, align 8, !tbaa !61
  %55 = load ptr, ptr %5, align 8, !tbaa !22
  %56 = getelementptr inbounds nuw %struct.ColorCorrectContext, ptr %55, i32 0, i32 14
  %57 = load ptr, ptr %56, align 8, !tbaa !61
  %58 = icmp ne ptr %57, null
  br i1 %58, label %60, label %59

59:                                               ; preds = %1
  store i32 -12, ptr %2, align 4
  store i32 1, ptr %7, align 4
  br label %228

60:                                               ; preds = %1
  %61 = load ptr, ptr %5, align 8, !tbaa !22
  %62 = getelementptr inbounds nuw %struct.ColorCorrectContext, ptr %61, i32 0, i32 8
  %63 = load float, ptr %62, align 4, !tbaa !59
  %64 = fcmp nsz oeq float %63, 2.550000e+02
  %65 = select i1 %64, i32 256, i32 65536
  %66 = sext i32 %65 to i64
  %67 = call noalias ptr @av_calloc(i64 noundef %66, i64 noundef 4)
  %68 = load ptr, ptr %5, align 8, !tbaa !22
  %69 = getelementptr inbounds nuw %struct.ColorCorrectContext, ptr %68, i32 0, i32 15
  store ptr %67, ptr %69, align 8, !tbaa !62
  %70 = load ptr, ptr %5, align 8, !tbaa !22
  %71 = getelementptr inbounds nuw %struct.ColorCorrectContext, ptr %70, i32 0, i32 15
  %72 = load ptr, ptr %71, align 8, !tbaa !62
  %73 = icmp ne ptr %72, null
  br i1 %73, label %75, label %74

74:                                               ; preds = %60
  store i32 -12, ptr %2, align 4
  store i32 1, ptr %7, align 4
  br label %228

75:                                               ; preds = %60
  %76 = load ptr, ptr %3, align 8, !tbaa !24
  %77 = getelementptr inbounds nuw %struct.AVFilterLink, ptr %76, i32 0, i32 7
  %78 = load i32, ptr %77, align 4, !tbaa !63
  %79 = sext i32 %78 to i64
  %80 = call noalias ptr @av_calloc(i64 noundef %79, i64 noundef 16)
  %81 = load ptr, ptr %5, align 8, !tbaa !22
  %82 = getelementptr inbounds nuw %struct.ColorCorrectContext, ptr %81, i32 0, i32 16
  store ptr %80, ptr %82, align 8, !tbaa !44
  %83 = load ptr, ptr %5, align 8, !tbaa !22
  %84 = getelementptr inbounds nuw %struct.ColorCorrectContext, ptr %83, i32 0, i32 16
  %85 = load ptr, ptr %84, align 8, !tbaa !44
  %86 = icmp ne ptr %85, null
  br i1 %86, label %88, label %87

87:                                               ; preds = %75
  store i32 -12, ptr %2, align 4
  store i32 1, ptr %7, align 4
  br label %228

88:                                               ; preds = %75
  %89 = load ptr, ptr %5, align 8, !tbaa !22
  %90 = getelementptr inbounds nuw %struct.ColorCorrectContext, ptr %89, i32 0, i32 6
  %91 = load i32, ptr %90, align 4, !tbaa !36
  switch i32 %91, label %116 [
    i32 0, label %117
    i32 1, label %92
    i32 2, label %100
    i32 3, label %108
  ]

92:                                               ; preds = %88
  %93 = load ptr, ptr %5, align 8, !tbaa !22
  %94 = getelementptr inbounds nuw %struct.ColorCorrectContext, ptr %93, i32 0, i32 7
  %95 = load i32, ptr %94, align 8, !tbaa !58
  %96 = icmp sle i32 %95, 8
  %97 = select i1 %96, ptr @average_slice8, ptr @average_slice16
  %98 = load ptr, ptr %5, align 8, !tbaa !22
  %99 = getelementptr inbounds nuw %struct.ColorCorrectContext, ptr %98, i32 0, i32 17
  store ptr %97, ptr %99, align 8, !tbaa !43
  br label %117

100:                                              ; preds = %88
  %101 = load ptr, ptr %5, align 8, !tbaa !22
  %102 = getelementptr inbounds nuw %struct.ColorCorrectContext, ptr %101, i32 0, i32 7
  %103 = load i32, ptr %102, align 8, !tbaa !58
  %104 = icmp sle i32 %103, 8
  %105 = select i1 %104, ptr @minmax_slice8, ptr @minmax_slice16
  %106 = load ptr, ptr %5, align 8, !tbaa !22
  %107 = getelementptr inbounds nuw %struct.ColorCorrectContext, ptr %106, i32 0, i32 17
  store ptr %105, ptr %107, align 8, !tbaa !43
  br label %117

108:                                              ; preds = %88
  %109 = load ptr, ptr %5, align 8, !tbaa !22
  %110 = getelementptr inbounds nuw %struct.ColorCorrectContext, ptr %109, i32 0, i32 7
  %111 = load i32, ptr %110, align 8, !tbaa !58
  %112 = icmp sle i32 %111, 8
  %113 = select i1 %112, ptr @median_8, ptr @median_16
  %114 = load ptr, ptr %5, align 8, !tbaa !22
  %115 = getelementptr inbounds nuw %struct.ColorCorrectContext, ptr %114, i32 0, i32 17
  store ptr %113, ptr %115, align 8, !tbaa !43
  br label %117

116:                                              ; preds = %88
  store i32 -558323010, ptr %2, align 4
  store i32 1, ptr %7, align 4
  br label %228

117:                                              ; preds = %108, %100, %92, %88
  %118 = load ptr, ptr %6, align 8, !tbaa !54
  %119 = getelementptr inbounds nuw %struct.AVPixFmtDescriptor, ptr %118, i32 0, i32 2
  %120 = load i8, ptr %119, align 1, !tbaa !64
  %121 = zext i8 %120 to i32
  %122 = shl i32 1, %121
  %123 = load ptr, ptr %5, align 8, !tbaa !22
  %124 = getelementptr inbounds nuw %struct.ColorCorrectContext, ptr %123, i32 0, i32 10
  store i32 %122, ptr %124, align 4, !tbaa !67
  %125 = load ptr, ptr %6, align 8, !tbaa !54
  %126 = getelementptr inbounds nuw %struct.AVPixFmtDescriptor, ptr %125, i32 0, i32 3
  %127 = load i8, ptr %126, align 2, !tbaa !68
  %128 = zext i8 %127 to i32
  %129 = shl i32 1, %128
  %130 = load ptr, ptr %5, align 8, !tbaa !22
  %131 = getelementptr inbounds nuw %struct.ColorCorrectContext, ptr %130, i32 0, i32 11
  store i32 %129, ptr %131, align 8, !tbaa !69
  %132 = load ptr, ptr %6, align 8, !tbaa !54
  %133 = getelementptr inbounds nuw %struct.AVPixFmtDescriptor, ptr %132, i32 0, i32 3
  %134 = load i8, ptr %133, align 2, !tbaa !68
  %135 = call i1 @llvm.is.constant.i8(i8 %134)
  br i1 %135, label %147, label %136

136:                                              ; preds = %117
  %137 = load ptr, ptr %3, align 8, !tbaa !24
  %138 = getelementptr inbounds nuw %struct.AVFilterLink, ptr %137, i32 0, i32 7
  %139 = load i32, ptr %138, align 4, !tbaa !63
  %140 = sub nsw i32 0, %139
  %141 = load ptr, ptr %6, align 8, !tbaa !54
  %142 = getelementptr inbounds nuw %struct.AVPixFmtDescriptor, ptr %141, i32 0, i32 3
  %143 = load i8, ptr %142, align 2, !tbaa !68
  %144 = zext i8 %143 to i32
  %145 = ashr i32 %140, %144
  %146 = sub nsw i32 0, %145
  br label %163

147:                                              ; preds = %117
  %148 = load ptr, ptr %3, align 8, !tbaa !24
  %149 = getelementptr inbounds nuw %struct.AVFilterLink, ptr %148, i32 0, i32 7
  %150 = load i32, ptr %149, align 4, !tbaa !63
  %151 = load ptr, ptr %6, align 8, !tbaa !54
  %152 = getelementptr inbounds nuw %struct.AVPixFmtDescriptor, ptr %151, i32 0, i32 3
  %153 = load i8, ptr %152, align 2, !tbaa !68
  %154 = zext i8 %153 to i32
  %155 = shl i32 1, %154
  %156 = add nsw i32 %150, %155
  %157 = sub nsw i32 %156, 1
  %158 = load ptr, ptr %6, align 8, !tbaa !54
  %159 = getelementptr inbounds nuw %struct.AVPixFmtDescriptor, ptr %158, i32 0, i32 3
  %160 = load i8, ptr %159, align 2, !tbaa !68
  %161 = zext i8 %160 to i32
  %162 = ashr i32 %157, %161
  br label %163

163:                                              ; preds = %147, %136
  %164 = phi i32 [ %146, %136 ], [ %162, %147 ]
  %165 = load ptr, ptr %5, align 8, !tbaa !22
  %166 = getelementptr inbounds nuw %struct.ColorCorrectContext, ptr %165, i32 0, i32 12
  %167 = getelementptr inbounds [4 x i32], ptr %166, i64 0, i64 2
  store i32 %164, ptr %167, align 4, !tbaa !41
  %168 = load ptr, ptr %5, align 8, !tbaa !22
  %169 = getelementptr inbounds nuw %struct.ColorCorrectContext, ptr %168, i32 0, i32 12
  %170 = getelementptr inbounds [4 x i32], ptr %169, i64 0, i64 1
  store i32 %164, ptr %170, align 4, !tbaa !41
  %171 = load ptr, ptr %3, align 8, !tbaa !24
  %172 = getelementptr inbounds nuw %struct.AVFilterLink, ptr %171, i32 0, i32 7
  %173 = load i32, ptr %172, align 4, !tbaa !63
  %174 = load ptr, ptr %5, align 8, !tbaa !22
  %175 = getelementptr inbounds nuw %struct.ColorCorrectContext, ptr %174, i32 0, i32 12
  %176 = getelementptr inbounds [4 x i32], ptr %175, i64 0, i64 3
  store i32 %173, ptr %176, align 4, !tbaa !41
  %177 = load ptr, ptr %5, align 8, !tbaa !22
  %178 = getelementptr inbounds nuw %struct.ColorCorrectContext, ptr %177, i32 0, i32 12
  %179 = getelementptr inbounds [4 x i32], ptr %178, i64 0, i64 0
  store i32 %173, ptr %179, align 4, !tbaa !41
  %180 = load ptr, ptr %6, align 8, !tbaa !54
  %181 = getelementptr inbounds nuw %struct.AVPixFmtDescriptor, ptr %180, i32 0, i32 2
  %182 = load i8, ptr %181, align 1, !tbaa !64
  %183 = call i1 @llvm.is.constant.i8(i8 %182)
  br i1 %183, label %195, label %184

184:                                              ; preds = %163
  %185 = load ptr, ptr %3, align 8, !tbaa !24
  %186 = getelementptr inbounds nuw %struct.AVFilterLink, ptr %185, i32 0, i32 6
  %187 = load i32, ptr %186, align 8, !tbaa !70
  %188 = sub nsw i32 0, %187
  %189 = load ptr, ptr %6, align 8, !tbaa !54
  %190 = getelementptr inbounds nuw %struct.AVPixFmtDescriptor, ptr %189, i32 0, i32 2
  %191 = load i8, ptr %190, align 1, !tbaa !64
  %192 = zext i8 %191 to i32
  %193 = ashr i32 %188, %192
  %194 = sub nsw i32 0, %193
  br label %211

195:                                              ; preds = %163
  %196 = load ptr, ptr %3, align 8, !tbaa !24
  %197 = getelementptr inbounds nuw %struct.AVFilterLink, ptr %196, i32 0, i32 6
  %198 = load i32, ptr %197, align 8, !tbaa !70
  %199 = load ptr, ptr %6, align 8, !tbaa !54
  %200 = getelementptr inbounds nuw %struct.AVPixFmtDescriptor, ptr %199, i32 0, i32 2
  %201 = load i8, ptr %200, align 1, !tbaa !64
  %202 = zext i8 %201 to i32
  %203 = shl i32 1, %202
  %204 = add nsw i32 %198, %203
  %205 = sub nsw i32 %204, 1
  %206 = load ptr, ptr %6, align 8, !tbaa !54
  %207 = getelementptr inbounds nuw %struct.AVPixFmtDescriptor, ptr %206, i32 0, i32 2
  %208 = load i8, ptr %207, align 1, !tbaa !64
  %209 = zext i8 %208 to i32
  %210 = ashr i32 %205, %209
  br label %211

211:                                              ; preds = %195, %184
  %212 = phi i32 [ %194, %184 ], [ %210, %195 ]
  %213 = load ptr, ptr %5, align 8, !tbaa !22
  %214 = getelementptr inbounds nuw %struct.ColorCorrectContext, ptr %213, i32 0, i32 13
  %215 = getelementptr inbounds [4 x i32], ptr %214, i64 0, i64 2
  store i32 %212, ptr %215, align 4, !tbaa !41
  %216 = load ptr, ptr %5, align 8, !tbaa !22
  %217 = getelementptr inbounds nuw %struct.ColorCorrectContext, ptr %216, i32 0, i32 13
  %218 = getelementptr inbounds [4 x i32], ptr %217, i64 0, i64 1
  store i32 %212, ptr %218, align 4, !tbaa !41
  %219 = load ptr, ptr %3, align 8, !tbaa !24
  %220 = getelementptr inbounds nuw %struct.AVFilterLink, ptr %219, i32 0, i32 6
  %221 = load i32, ptr %220, align 8, !tbaa !70
  %222 = load ptr, ptr %5, align 8, !tbaa !22
  %223 = getelementptr inbounds nuw %struct.ColorCorrectContext, ptr %222, i32 0, i32 13
  %224 = getelementptr inbounds [4 x i32], ptr %223, i64 0, i64 3
  store i32 %221, ptr %224, align 4, !tbaa !41
  %225 = load ptr, ptr %5, align 8, !tbaa !22
  %226 = getelementptr inbounds nuw %struct.ColorCorrectContext, ptr %225, i32 0, i32 13
  %227 = getelementptr inbounds [4 x i32], ptr %226, i64 0, i64 0
  store i32 %221, ptr %227, align 4, !tbaa !41
  store i32 0, ptr %2, align 4
  store i32 1, ptr %7, align 4
  br label %228

228:                                              ; preds = %211, %116, %87, %74, %59
  call void @llvm.lifetime.end.p0(i64 8, ptr %6) #9
  call void @llvm.lifetime.end.p0(i64 8, ptr %5) #9
  call void @llvm.lifetime.end.p0(i64 8, ptr %4) #9
  %229 = load i32, ptr %2, align 4
  ret i32 %229
}