; Function Attrs: cold nounwind optsize uwtable
define internal range(i32 -558323010, 1) i32 @config_input(ptr noundef readonly captures(none) %0) #0 {
  %2 = getelementptr inbounds nuw i8, ptr %0, i64 16
  %3 = load ptr, ptr %2, align 8, !tbaa !20
  %4 = getelementptr inbounds nuw i8, ptr %3, i64 72
  %5 = load ptr, ptr %4, align 8, !tbaa !4
  %6 = getelementptr inbounds nuw i8, ptr %0, i64 36
  %7 = load i32, ptr %6, align 4, !tbaa !48
  %8 = tail call ptr @av_pix_fmt_desc_get(i32 noundef %7) #8
  %9 = getelementptr inbounds nuw i8, ptr %8, i64 40
  %10 = load i32, ptr %9, align 8, !tbaa !49
  %11 = getelementptr inbounds nuw i8, ptr %5, i64 32
  store i32 %10, ptr %11, align 8, !tbaa !51
  %notmask = shl nsw i32 -1, %10
  %12 = xor i32 %notmask, -1
  %13 = uitofp nneg i32 %12 to float
  %14 = getelementptr inbounds nuw i8, ptr %5, i64 36
  store float %13, ptr %14, align 4, !tbaa !52
  %15 = fdiv nsz float 1.000000e+00, %13
  %16 = getelementptr inbounds nuw i8, ptr %5, i64 40
  store float %15, ptr %16, align 8, !tbaa !53
  %17 = icmp slt i32 %10, 9
  %18 = select i1 %17, ptr @colorcorrect_slice8, ptr @colorcorrect_slice16
  %19 = getelementptr inbounds nuw i8, ptr %5, i64 120
  store ptr %18, ptr %19, align 8, !tbaa !44
  %20 = icmp eq i32 %10, 8
  %21 = select i1 %20, i64 256, i64 65536
  %22 = tail call noalias ptr @av_calloc(i64 noundef %21, i64 noundef 4) #8
  %23 = getelementptr inbounds nuw i8, ptr %5, i64 88
  store ptr %22, ptr %23, align 8, !tbaa !54
  %.not = icmp eq ptr %22, null
  br i1 %.not, label %83, label %24

24:                                               ; preds = %1
  %25 = load float, ptr %14, align 4, !tbaa !52
  %26 = fcmp nsz oeq float %25, 2.550000e+02
  %27 = select i1 %26, i64 256, i64 65536
  %28 = tail call noalias ptr @av_calloc(i64 noundef %27, i64 noundef 4) #8
  %29 = getelementptr inbounds nuw i8, ptr %5, i64 96
  store ptr %28, ptr %29, align 8, !tbaa !55
  %.not53 = icmp eq ptr %28, null
  br i1 %.not53, label %83, label %30

30:                                               ; preds = %24
  %31 = getelementptr inbounds nuw i8, ptr %0, i64 44
  %32 = load i32, ptr %31, align 4, !tbaa !56
  %33 = sext i32 %32 to i64
  %34 = tail call noalias ptr @av_calloc(i64 noundef %33, i64 noundef 16) #8
  %35 = getelementptr inbounds nuw i8, ptr %5, i64 104
  store ptr %34, ptr %35, align 8, !tbaa !36
  %.not54 = icmp eq ptr %34, null
  br i1 %.not54, label %83, label %36

36:                                               ; preds = %30
  %37 = getelementptr inbounds nuw i8, ptr %5, i64 28
  %38 = load i32, ptr %37, align 4, !tbaa !29
  switch i32 %38, label %83 [
    i32 0, label %52
    i32 1, label %39
    i32 2, label %43
    i32 3, label %47
  ]

39:                                               ; preds = %36
  %40 = load i32, ptr %11, align 8, !tbaa !51
  %41 = icmp slt i32 %40, 9
  %42 = select i1 %41, ptr @average_slice8, ptr @average_slice16
  br label %.sink.split

43:                                               ; preds = %36
  %44 = load i32, ptr %11, align 8, !tbaa !51
  %45 = icmp slt i32 %44, 9
  %46 = select i1 %45, ptr @minmax_slice8, ptr @minmax_slice16
  br label %.sink.split

47:                                               ; preds = %36
  %48 = load i32, ptr %11, align 8, !tbaa !51
  %49 = icmp slt i32 %48, 9
  %50 = select i1 %49, ptr @median_8, ptr @median_16
  br label %.sink.split

.sink.split:                                      ; preds = %39, %43, %47
  %.sink = phi ptr [ %50, %47 ], [ %46, %43 ], [ %42, %39 ]
  %51 = getelementptr inbounds nuw i8, ptr %5, i64 112
  store ptr %.sink, ptr %51, align 8, !tbaa !34
  br label %52

52:                                               ; preds = %.sink.split, %36
  %53 = getelementptr inbounds nuw i8, ptr %8, i64 9
  %54 = load i8, ptr %53, align 1, !tbaa !57
  %55 = zext i8 %54 to i32
  %56 = shl nuw i32 1, %55
  %57 = getelementptr inbounds nuw i8, ptr %5, i64 44
  store i32 %56, ptr %57, align 4, !tbaa !60
  %58 = getelementptr inbounds nuw i8, ptr %8, i64 10
  %59 = load i8, ptr %58, align 2, !tbaa !61
  %60 = zext i8 %59 to i32
  %61 = shl nuw i32 1, %60
  %62 = getelementptr inbounds nuw i8, ptr %5, i64 48
  store i32 %61, ptr %62, align 8, !tbaa !62
  %63 = load i32, ptr %31, align 4, !tbaa !56
  %64 = sub nsw i32 0, %63
  %65 = ashr i32 %64, %60
  %66 = sub nsw i32 0, %65
  %67 = getelementptr inbounds nuw i8, ptr %5, i64 52
  %68 = getelementptr inbounds nuw i8, ptr %5, i64 60
  store i32 %66, ptr %68, align 4, !tbaa !35
  %69 = getelementptr inbounds nuw i8, ptr %5, i64 56
  store i32 %66, ptr %69, align 4, !tbaa !35
  %70 = load i32, ptr %31, align 4, !tbaa !56
  %71 = getelementptr inbounds nuw i8, ptr %5, i64 64
  store i32 %70, ptr %71, align 4, !tbaa !35
  store i32 %70, ptr %67, align 4, !tbaa !35
  %72 = getelementptr inbounds nuw i8, ptr %0, i64 40
  %73 = load i32, ptr %72, align 8, !tbaa !63
  %74 = sub nsw i32 0, %73
  %75 = ashr i32 %74, %55
  %76 = sub nsw i32 0, %75
  %77 = getelementptr inbounds nuw i8, ptr %5, i64 68
  %78 = getelementptr inbounds nuw i8, ptr %5, i64 76
  store i32 %76, ptr %78, align 4, !tbaa !35
  %79 = getelementptr inbounds nuw i8, ptr %5, i64 72
  store i32 %76, ptr %79, align 4, !tbaa !35
  %80 = getelementptr inbounds nuw i8, ptr %0, i64 40
  %81 = load i32, ptr %80, align 8, !tbaa !63
  %82 = getelementptr inbounds nuw i8, ptr %5, i64 80
  store i32 %81, ptr %82, align 4, !tbaa !35
  store i32 %81, ptr %77, align 4, !tbaa !35
  br label %83

83:                                               ; preds = %36, %30, %24, %1, %52
  %.0 = phi i32 [ 0, %52 ], [ -12, %1 ], [ -12, %24 ], [ -12, %30 ], [ -558323010, %36 ]
  ret i32 %.0
}